target datalayout = "e-m:e-p270:32:32-p271:32:32-p272:64:64-i64:64-i128:128-f80:128-n8:16:32:64-S128"
target triple = "x86_64-pc-linux-gnu"

%"struct.icu_77::Edits::Iterator" = type <{ ptr, i32, i32, i32, i8, i8, i8, i8, i32, i32, i32, i32, i32, [4 x i8] }>

; Function Attrs: mustprogress uwtable
define noundef i32 @_ZN6icu_775Edits8Iterator31destinationIndexFromSourceIndexEiR10UErrorCode(ptr noundef nonnull align 8 dereferenceable(48) %0, i32 noundef %1, ptr noundef nonnull align 4 dereferenceable(4) %2) #1 align 2 {
  %4 = alloca i32, align 4
  %5 = alloca ptr, align 8
  %6 = alloca i32, align 4
  %7 = alloca ptr, align 8
  %8 = alloca i32, align 4
  %9 = alloca i32, align 4
  store ptr %0, ptr %5, align 8, !tbaa !40
  store i32 %1, ptr %6, align 4, !tbaa !14
  store ptr %2, ptr %7, align 8, !tbaa !22
  %10 = load ptr, ptr %5, align 8
  call void @llvm.lifetime.start.p0(i64 4, ptr %8) #9
  %11 = load i32, ptr %6, align 4, !tbaa !14
  %12 = load ptr, ptr %7, align 8, !tbaa !22
  %13 = call noundef i32 @_ZN6icu_775Edits8Iterator9findIndexEiaR10UErrorCode(ptr noundef nonnull align 8 dereferenceable(48) %10, i32 noundef %11, i8 noundef signext 1, ptr noundef nonnull align 4 dereferenceable(4) %12)
  store i32 %13, ptr %8, align 4, !tbaa !14
  %14 = load i32, ptr %8, align 4, !tbaa !14
  %15 = icmp slt i32 %14, 0
  br i1 %15, label %16, label %17

16:                                               ; preds = %3
  store i32 0, ptr %4, align 4
  store i32 1, ptr %9, align 4
  br label %46

17:                                               ; preds = %3
  %18 = load i32, ptr %8, align 4, !tbaa !14
  %19 = icmp sgt i32 %18, 0
  br i1 %19, label %25, label %20

20:                                               ; preds = %17
  %21 = load i32, ptr %6, align 4, !tbaa !14
  %22 = getelementptr inbounds nuw %"struct.icu_77::Edits::Iterator", ptr %10, i32 0, i32 10
  %23 = load i32, ptr %22, align 8, !tbaa !53
  %24 = icmp eq i32 %21, %23
  br i1 %24, label %25, label %28

25:                                               ; preds = %20, %17
  %26 = getelementptr inbounds nuw %"struct.icu_77::Edits::Iterator", ptr %10, i32 0, i32 12
  %27 = load i32, ptr %26, align 8, !tbaa !55
  store i32 %27, ptr %4, align 4
  store i32 1, ptr %9, align 4
  br label %46

28:                                               ; preds = %20
  %29 = getelementptr inbounds nuw %"struct.icu_77::Edits::Iterator", ptr %10, i32 0, i32 7
  %30 = load i8, ptr %29, align 1, !tbaa !46
  %31 = icmp ne i8 %30, 0
  br i1 %31, label %32, label %38

32:                                               ; preds = %28
  %33 = getelementptr inbounds nuw %"struct.icu_77::Edits::Iterator", ptr %10, i32 0, i32 12
  %34 = load i32, ptr %33, align 8, !tbaa !55
  %35 = getelementptr inbounds nuw %"struct.icu_77::Edits::Iterator", ptr %10, i32 0, i32 9
  %36 = load i32, ptr %35, align 4, !tbaa !45
  %37 = add nsw i32 %34, %36
  store i32 %37, ptr %4, align 4
  store i32 1, ptr %9, align 4
  br label %46

38:                                               ; preds = %28
  %39 = getelementptr inbounds nuw %"struct.icu_77::Edits::Iterator", ptr %10, i32 0, i32 12
  %40 = load i32, ptr %39, align 8, !tbaa !55
  %41 = load i32, ptr %6, align 4, !tbaa !14
  %42 = getelementptr inbounds nuw %"struct.icu_77::Edits::Iterator", ptr %10, i32 0, i32 10
  %43 = load i32, ptr %42, align 8, !tbaa !53
  %44 = sub nsw i32 %41, %43
  %45 = add nsw i32 %40, %44
  store i32 %45, ptr %4, align 4
  store i32 1, ptr %9, align 4
  br label %46

46:                                               ; preds = %38, %32, %25, %16
  call void @llvm.lifetime.end.p0(i64 4, ptr %8) #9
  %47 = load i32, ptr %4, align 4
  ret i32 %47
}